Certificate:
    Data:
        Version: 3 (0x2)
        Serial Number: 2 (0x2)
        Signature Algorithm: sha256WithRSAEncryption
        Issuer: C=FR, ST=RADIUS, L=BEZIERS, O=IUT/emailAddress=admin@iutbeziers.fr, CN=RTBZ Certificate Authority
        Validity
            Not Before: Sep 10 12:20:57 2024 GMT
            Not After : Jul 20 12:20:57 2034 GMT
        Subject: C=FR, ST=RADIUS, O=IUT, CN=bob@iutbeziers.fr/emailAddress=bob@iutbeziers.fr
        Subject Public Key Info:
            Public Key Algorithm: rsaEncryption
                Public-Key: (2048 bit)
                Modulus:
                    00:a4:0f:84:74:1b:34:42:3f:e0:9c:90:36:b0:59:
                    ba:d3:b1:1c:b3:62:b4:d5:84:4c:a6:f5:ce:7c:16:
                    61:56:83:a6:b0:a7:6e:07:63:a1:4e:4f:01:af:50:
                    99:7f:50:6e:0b:62:bb:6e:44:21:84:c5:a3:73:d6:
                    56:82:cb:a7:09:bd:93:a0:06:e2:1f:72:7c:5f:d7:
                    c8:29:83:81:82:7f:02:14:b3:fb:87:36:6b:f7:20:
                    87:41:4b:49:75:31:c6:e3:cc:41:c6:fd:01:9c:6d:
                    1b:a2:f1:76:a9:ac:ec:7c:11:9c:0c:a4:24:23:2c:
                    ed:22:28:c0:91:6a:14:e2:ed:76:e0:0e:f9:cd:cb:
                    b1:47:a3:b7:42:dc:d2:28:5a:89:67:45:11:98:da:
                    08:9e:87:88:fd:72:51:bf:77:22:01:25:fe:c1:58:
                    03:93:0e:71:e2:1e:9f:fa:8f:ab:be:2d:12:f7:28:
                    b2:16:ca:3c:ba:c3:ac:ab:41:8a:be:61:42:47:ab:
                    84:d2:66:ae:1e:d7:ef:31:31:2d:e4:42:f1:8d:01:
                    2a:94:d6:a1:5b:cd:53:0d:a0:f7:97:61:c9:17:6b:
                    28:30:de:1b:3b:14:6c:a8:0f:b7:96:46:7c:25:c8:
                    c1:b2:4c:7f:d6:f1:48:3e:ed:46:7d:78:82:cf:17:
                    9c:7d
                Exponent: 65537 (0x10001)
        X509v3 extensions:
            X509v3 Extended Key Usage: 
                TLS Web Client Authentication
            X509v3 CRL Distribution Points: 
                Full Name:
                  URI:http://www.example.com/example_ca.crl
            X509v3 Subject Key Identifier: 
                44:7C:2C:57:E8:B6:F5:AC:57:59:CE:25:91:79:21:4D:FA:39:E4:7E
            X509v3 Authority Key Identifier: 
                F6:BA:08:D7:7A:6D:C4:A3:58:9D:34:3C:37:E0:DC:5A:32:A3:12:07
    Signature Algorithm: sha256WithRSAEncryption
    Signature Value:
        70:7b:c1:2f:5f:4d:7d:6e:19:62:41:a5:43:27:9a:fe:37:eb:
        a9:31:69:e4:cc:87:e0:02:65:6d:50:d0:9e:d0:d7:f5:bc:b3:
        84:9c:b0:8d:c1:bd:51:c7:a7:8f:e7:f3:8b:43:2c:cb:64:6e:
        2d:dd:e2:c7:5b:3e:41:24:86:86:51:ac:23:b0:fa:de:f8:dd:
        9e:64:7e:7b:99:7b:1c:c8:cd:e5:82:2b:5a:a6:e0:1d:2a:aa:
        dc:2a:50:68:22:cd:68:11:69:29:1d:37:80:ab:3e:45:8f:6f:
        95:03:b0:7b:80:db:04:11:d1:d0:9d:90:ea:78:f6:a8:ad:39:
        9f:fb:dd:c0:26:3e:6b:41:72:7d:ac:be:9a:e4:bb:cc:73:51:
        59:be:79:db:53:fa:8f:a5:69:46:0d:5e:e4:54:86:84:6d:1b:
        13:59:0a:c2:57:a5:53:94:7d:c9:bc:dc:ef:d3:19:3c:d7:0d:
        6b:40:85:8c:d7:1e:00:7a:df:cf:41:3a:c1:ad:3c:2e:1a:79:
        98:91:10:ea:6a:d2:bb:3f:3c:b8:ff:9c:a8:16:9c:7d:bb:26:
        35:f7:eb:6f:fb:05:12:2c:14:54:1d:64:b6:e8:6e:d5:22:96:
        f3:2b:60:f9:60:0e:44:76:5a:9b:b4:83:67:fe:9e:04:fa:03:
        6a:95:c3:60
-----BEGIN CERTIFICATE-----
MIID/jCCAuagAwIBAgIBAjANBgkqhkiG9w0BAQsFADCBhzELMAkGA1UEBhMCRlIx
DzANBgNVBAgMBlJBRElVUzEQMA4GA1UEBwwHQkVaSUVSUzEMMAoGA1UECgwDSVVU
MSIwIAYJKoZIhvcNAQkBFhNhZG1pbkBpdXRiZXppZXJzLmZyMSMwIQYDVQQDDBpS
VEJaIENlcnRpZmljYXRlIEF1dGhvcml0eTAeFw0yNDA5MTAxMjIwNTdaFw0zNDA3
MjAxMjIwNTdaMGoxCzAJBgNVBAYTAkZSMQ8wDQYDVQQIDAZSQURJVVMxDDAKBgNV
BAoMA0lVVDEaMBgGA1UEAwwRYm9iQGl1dGJlemllcnMuZnIxIDAeBgkqhkiG9w0B
CQEWEWJvYkBpdXRiZXppZXJzLmZyMIIBIjANBgkqhkiG9w0BAQEFAAOCAQ8AMIIB
CgKCAQEApA+EdBs0Qj/gnJA2sFm607Ecs2K01YRMpvXOfBZhVoOmsKduB2OhTk8B
r1CZf1BuC2K7bkQhhMWjc9ZWgsunCb2ToAbiH3J8X9fIKYOBgn8CFLP7hzZr9yCH
QUtJdTHG48xBxv0BnG0bovF2qazsfBGcDKQkIyztIijAkWoU4u124A75zcuxR6O3
QtzSKFqJZ0URmNoInoeI/XJRv3ciASX+wVgDkw5x4h6f+o+rvi0S9yiyFso8usOs
q0GKvmFCR6uE0mauHtfvMTEt5ELxjQEqlNahW81TDaD3l2HJF2soMN4bOxRsqA+3
lkZ8JcjBskx/1vFIPu1GfXiCzxecfQIDAQABo4GQMIGNMBMGA1UdJQQMMAoGCCsG
AQUFBwMCMDYGA1UdHwQvMC0wK6ApoCeGJWh0dHA6Ly93d3cuZXhhbXBsZS5jb20v
ZXhhbXBsZV9jYS5jcmwwHQYDVR0OBBYEFER8LFfotvWsV1nOJZF5IU36OeR+MB8G
A1UdIwQYMBaAFPa6CNd6bcSjWJ00PDfg3FoyoxIHMA0GCSqGSIb3DQEBCwUAA4IB
AQBwe8EvX019bhliQaVDJ5r+N+upMWnkzIfgAmVtUNCe0Nf1vLOEnLCNwb1Rx6eP
5/OLQyzLZG4t3eLHWz5BJIaGUawjsPre+N2eZH57mXscyM3lgitapuAdKqrcKlBo
Is1oEWkpHTeAqz5Fj2+VA7B7gNsEEdHQnZDqePaorTmf+93AJj5rQXJ9rL6a5LvM
c1FZvnnbU/qPpWlGDV7kVIaEbRsTWQrCV6VTlH3JvNzv0xk81w1rQIWM1x4Aet/P
QTrBrTwuGnmYkRDqatK7Pzy4/5yoFpx9uyY19+tv+wUSLBRUHWS26G7VIpbzK2D5
YA5EdlqbtINn/p4E+gNqlcNg
-----END CERTIFICATE-----
